target datalayout = "e-m:e-p270:32:32-p271:32:32-p272:64:64-i64:64-i128:128-f80:128-n8:16:32:64-S128"
target triple = "x86_64-pc-linux-gnu"

%union.pthread_mutex_t = type { %struct.__pthread_mutex_s }
%struct.__pthread_mutex_s = type { i32, i32, i32, i32, i32, i16, i16, %struct.__pthread_internal_list }
%struct.__pthread_internal_list = type { ptr, ptr }
%struct.anon.0 = type { %union.pthread_mutex_t, i32, ptr, ptr, i8 }

@.str.43 = private unnamed_addr constant [29 x i8] c"%s: pthread_mutex_lock(): %m\00", align 1
@.str.44 = private unnamed_addr constant [31 x i8] c"%s: pthread_mutex_unlock(): %m\00", align 1
@listeners = internal global { %union.pthread_mutex_t, i32, [4 x i8], ptr, ptr, i8, [7 x i8] } zeroinitializer, align 8
@__func__._on_connection = private unnamed_addr constant [15 x i8] c"_on_connection\00", align 1
@.str.145 = private unnamed_addr constant [37 x i8] c"%s: [%s] PRIMARY: New RPC connection\00", align 1
@__func__._on_primary_connection = private unnamed_addr constant [23 x i8] c"_on_primary_connection\00", align 1

; Function Attrs: nounwind uwtable
define internal ptr @_on_primary_connection(ptr noundef %0, ptr noundef %1) #0 {
  %3 = alloca ptr, align 8
  %4 = alloca ptr, align 8
  store ptr %0, ptr %3, align 8
  store ptr %1, ptr %4, align 8
  br label %5

5:                                                ; preds = %2
  br label %6

6:                                                ; preds = %5
  %7 = call i32 @get_log_level()
  %8 = icmp sge i32 %7, 7
  br i1 %8, label %9, label %12

9:                                                ; preds = %6
  %10 = load ptr, ptr %3, align 8
  %11 = call ptr @conmgr_fd_get_name(ptr noundef %10)
  call void (i32, ptr, ...) @log_var(i32 noundef 7, ptr noundef @.str.145, ptr noundef @__func__._on_primary_connection, ptr noundef %11)
  br label %12

12:                                               ; preds = %9, %6
  br label %13

13:                                               ; preds = %12
  br label %14

14:                                               ; preds = %13
  %15 = load ptr, ptr %3, align 8
  ret ptr %15
}

; Function Attrs: nounwind uwtable
define internal ptr @_on_connection(ptr noundef %0, ptr noundef %1) #0 {
  %3 = alloca ptr, align 8
  %4 = alloca ptr, align 8
  %5 = alloca ptr, align 8
  %6 = alloca i8, align 1
  %7 = alloca i32, align 4
  %8 = alloca i32, align 4
  %9 = alloca i32, align 4
  store ptr %0, ptr %4, align 8
  store ptr %1, ptr %5, align 8
  call void @llvm.lifetime.start.p0(i64 1, ptr %6) #11
  br label %10

10:                                               ; preds = %2
  call void @llvm.lifetime.start.p0(i64 4, ptr %7) #11
  %11 = call i32 @pthread_mutex_lock(ptr noundef @listeners) #11
  store i32 %11, ptr %7, align 4
  %12 = load i32, ptr %7, align 4
  %13 = icmp ne i32 %12, 0
  br i1 %13, label %14, label %17

14:                                               ; preds = %10
  %15 = load i32, ptr %7, align 4
  %16 = call ptr @__errno_location() #14
  store i32 %15, ptr %16, align 4
  call void (ptr, ...) @fatal_abort(ptr noundef @.str.43, ptr noundef @__func__._on_connection) #12
  unreachable

17:                                               ; preds = %10
  call void @llvm.lifetime.end.p0(i64 4, ptr %7) #11
  br label %18

18:                                               ; preds = %17
  br label %19

19:                                               ; preds = %18
  %20 = load i8, ptr getelementptr inbounds nuw (%struct.anon.0, ptr @listeners, i32 0, i32 4), align 8, !range !8, !noundef !9
  %21 = trunc i8 %20 to i1
  %22 = zext i1 %21 to i8
  store i8 %22, ptr %6, align 1
  br label %23

23:                                               ; preds = %19
  call void @llvm.lifetime.start.p0(i64 4, ptr %8) #11
  %24 = call i32 @pthread_mutex_unlock(ptr noundef @listeners) #11
  store i32 %24, ptr %8, align 4
  %25 = load i32, ptr %8, align 4
  %26 = icmp ne i32 %25, 0
  br i1 %26, label %27, label %30

27:                                               ; preds = %23
  %28 = load i32, ptr %8, align 4
  %29 = call ptr @__errno_location() #14
  store i32 %28, ptr %29, align 4
  call void (ptr, ...) @fatal_abort(ptr noundef @.str.44, ptr noundef @__func__._on_connection) #12
  unreachable

30:                                               ; preds = %23
  call void @llvm.lifetime.end.p0(i64 4, ptr %8) #11
  br label %31

31:                                               ; preds = %30
  br label %32

32:                                               ; preds = %31
  %33 = load i8, ptr %6, align 1, !range !8, !noundef !9
  %34 = trunc i8 %33 to i1
  br i1 %34, label %39, label %35

35:                                               ; preds = %32
  %36 = load ptr, ptr %4, align 8
  %37 = load ptr, ptr %5, align 8
  %38 = call ptr @_on_primary_connection(ptr noundef %36, ptr noundef %37)
  store ptr %38, ptr %3, align 8
  store i32 1, ptr %9, align 4
  br label %43

39:                                               ; preds = %32
  %40 = load ptr, ptr %4, align 8
  %41 = load ptr, ptr %5, align 8
  %42 = call ptr @on_backup_connection(ptr noundef %40, ptr noundef %41)
  store ptr %42, ptr %3, align 8
  store i32 1, ptr %9, align 4
  br label %43

43:                                               ; preds = %39, %35
  call void @llvm.lifetime.end.p0(i64 1, ptr %6) #11
  %44 = load ptr, ptr %3, align 8
  ret ptr %44
}