; Function Attrs: nounwind uwtable
define internal ptr @_on_connection(ptr noundef %0, ptr noundef %1) #6 {
  %3 = tail call i32 @pthread_mutex_lock(ptr noundef nonnull @listeners) #19
  %.not = icmp eq i32 %3, 0
  br i1 %.not, label %6, label %4

4:                                                ; preds = %2
  %5 = tail call ptr @__errno_location() #21
  store i32 %3, ptr %5, align 4
  tail call void (ptr, ...) @fatal_abort(ptr noundef nonnull @.str.43, ptr noundef nonnull @__func__._on_connection) #20
  unreachable

6:                                                ; preds = %2
  %7 = load i8, ptr getelementptr inbounds nuw (i8, ptr @listeners, i64 64), align 8, !range !12, !noundef !13
  %8 = tail call i32 @pthread_mutex_unlock(ptr noundef nonnull @listeners) #19
  %.not11 = icmp eq i32 %8, 0
  br i1 %.not11, label %11, label %9

9:                                                ; preds = %6
  %10 = tail call ptr @__errno_location() #21
  store i32 %8, ptr %10, align 4
  tail call void (ptr, ...) @fatal_abort(ptr noundef nonnull @.str.44, ptr noundef nonnull @__func__._on_connection) #20
  unreachable

11:                                               ; preds = %6
  %12 = trunc nuw i8 %7 to i1
  br i1 %12, label %18, label %13

13:                                               ; preds = %11
  %14 = tail call i32 @get_log_level() #19
  %15 = icmp sgt i32 %14, 6
  br i1 %15, label %16, label %_on_primary_connection.exit

16:                                               ; preds = %13
  %17 = tail call ptr @conmgr_fd_get_name(ptr noundef %0) #19
  tail call void (i32, ptr, ...) @log_var(i32 noundef 7, ptr noundef nonnull @.str.145, ptr noundef nonnull @__func__._on_primary_connection, ptr noundef %17) #19
  br label %_on_primary_connection.exit

18:                                               ; preds = %11
  %19 = tail call ptr @on_backup_connection(ptr noundef %0, ptr noundef %1) #19
  br label %_on_primary_connection.exit

_on_primary_connection.exit:                      ; preds = %16, %13, %18
  %.0 = phi ptr [ %19, %18 ], [ %0, %13 ], [ %0, %16 ]
  ret ptr %.0
}